target datalayout = "e-m:e-p270:32:32-p271:32:32-p272:64:64-i64:64-i128:128-f80:128-n8:16:32:64-S128"
target triple = "x86_64-pc-linux-gnu"

%struct.quic_port_st = type { ptr, %struct.anon, ptr, ptr, ptr, ptr, ptr, ptr, %struct.ossl_list_st_ch, %struct.ossl_list_st_incoming_ch, ptr, ptr, ptr, ptr, i8, i8, i16, ptr }
%struct.anon = type { ptr, ptr }
%struct.ossl_list_st_ch = type { ptr, ptr, i64 }
%struct.ossl_list_st_incoming_ch = type { ptr, ptr, i64 }
%struct.quic_engine_st = type { ptr, ptr, ptr, ptr, ptr, %struct.quic_reactor_st, %struct.ossl_list_st_port, i8 }
%struct.quic_reactor_st = type { %struct.bio_poll_descriptor_st, %struct.bio_poll_descriptor_st, %struct.OSSL_TIME, ptr, ptr, ptr, %struct.rio_notifier_st, ptr, i64, i8 }
%struct.bio_poll_descriptor_st = type { i32, %union.anon.6 }
%union.anon.6 = type { ptr }
%struct.OSSL_TIME = type { i64 }
%struct.rio_notifier_st = type { i32, i32 }
%struct.ossl_list_st_port = type { ptr, ptr, i64 }
%struct.quic_channel_st = type { ptr, %struct.anon.0, %struct.anon.1, ptr, ptr, ptr, ptr, ptr, ptr, ptr, i64, %union.bio_addr_st, ptr, ptr, ptr, %struct.quic_txfc_st, %struct.quic_rxfc_st, [3 x %struct.quic_rxfc_st], %struct.quic_rxfc_st, %struct.quic_rxfc_st, %struct.quic_stream_map_st, %struct.ossl_statm_st, ptr, ptr, ptr, ptr, ptr, ptr, ptr, ptr, [3 x ptr], [3 x ptr], %struct.quic_conn_id_st, %struct.quic_conn_id_st, %struct.quic_conn_id_st, %struct.quic_conn_id_st, %struct.quic_conn_id_st, %struct.quic_conn_id_st, i64, i64, i64, i64, i64, i64, i64, i64, i64, i64, i8, i16, ptr, i64, i64, i64, i64, i64, i64, i64, i64, i64, i64, i64, i64, i64, %struct.quic_terminate_cause_st, %struct.OSSL_TIME, %struct.OSSL_TIME, %struct.OSSL_TIME, %struct.OSSL_TIME, %struct.OSSL_TIME, i64, i64, i64, ptr, ptr, i64, ptr }
%struct.anon.0 = type { ptr, ptr }
%struct.anon.1 = type { ptr, ptr }
%union.bio_addr_st = type { %struct.sockaddr_in6, [84 x i8] }
%struct.sockaddr_in6 = type { i16, i16, i32, %struct.in6_addr, i32 }
%struct.in6_addr = type { %union.anon }
%union.anon = type { [4 x i32] }
%struct.quic_txfc_st = type { ptr, i64, i64, i8 }
%struct.quic_rxfc_st = type { i64, i64, i64, i64, i64, i64, i64, %struct.OSSL_TIME, ptr, ptr, ptr, i8, i8, i8, i8 }
%struct.quic_stream_map_st = type { ptr, %struct.quic_stream_list_node_st, %struct.quic_stream_list_node_st, %struct.quic_stream_list_node_st, i64, i64, i64, i64, i64, ptr, ptr, ptr, ptr, ptr, i32 }
%struct.quic_stream_list_node_st = type { ptr, ptr }
%struct.ossl_statm_st = type { %struct.OSSL_TIME, %struct.OSSL_TIME, %struct.OSSL_TIME, %struct.OSSL_TIME, i8 }
%struct.quic_conn_id_st = type { i8, [20 x i8] }
%struct.quic_terminate_cause_st = type { i64, i64, ptr, i64, i8 }
%struct.quic_tick_result_st = type { %struct.OSSL_TIME, i8, i8, i8 }

@.str = private unnamed_addr constant [32 x i8] c"../openssl/ssl/quic/quic_port.c\00", align 1
@__func__.ossl_quic_port_raise_net_error = private unnamed_addr constant [31 x i8] c"ossl_quic_port_raise_net_error\00", align 1
@.str.1 = private unnamed_addr constant [41 x i8] c"port failed due to network BIO I/O error\00", align 1

; Function Attrs: nounwind uwtable
define internal void @port_transition_failed(ptr noundef %0) #0 {
  %2 = alloca ptr, align 8
  store ptr %0, ptr %2, align 8, !tbaa !8
  %3 = load ptr, ptr %2, align 8, !tbaa !8
  %4 = getelementptr inbounds nuw %struct.quic_port_st, ptr %3, i32 0, i32 16
  %5 = load i16, ptr %4, align 2
  %6 = and i16 %5, 1
  %7 = zext i16 %6 to i32
  %8 = icmp eq i32 %7, 1
  br i1 %8, label %9, label %10

9:                                                ; preds = %1
  br label %16

10:                                               ; preds = %1
  %11 = load ptr, ptr %2, align 8, !tbaa !8
  %12 = getelementptr inbounds nuw %struct.quic_port_st, ptr %11, i32 0, i32 16
  %13 = load i16, ptr %12, align 2
  %14 = and i16 %13, -2
  %15 = or i16 %14, 1
  store i16 %15, ptr %12, align 2
  br label %16

16:                                               ; preds = %10, %9
  ret void
}

; Function Attrs: inlinehint nounwind uwtable
define internal i64 @ossl_time_min(i64 %0, i64 %1) #3 {
  %3 = alloca %struct.OSSL_TIME, align 8
  %4 = alloca %struct.OSSL_TIME, align 8
  %5 = alloca %struct.OSSL_TIME, align 8
  %6 = getelementptr inbounds nuw %struct.OSSL_TIME, ptr %4, i32 0, i32 0
  store i64 %0, ptr %6, align 8
  %7 = getelementptr inbounds nuw %struct.OSSL_TIME, ptr %5, i32 0, i32 0
  store i64 %1, ptr %7, align 8
  %8 = getelementptr inbounds nuw %struct.OSSL_TIME, ptr %4, i32 0, i32 0
  %9 = load i64, ptr %8, align 8, !tbaa !251
  %10 = getelementptr inbounds nuw %struct.OSSL_TIME, ptr %5, i32 0, i32 0
  %11 = load i64, ptr %10, align 8, !tbaa !251
  %12 = icmp ult i64 %9, %11
  br i1 %12, label %13, label %14

13:                                               ; preds = %2
  call void @llvm.memcpy.p0.p0.i64(ptr align 8 %3, ptr align 8 %4, i64 8, i1 false), !tbaa.struct !191
  br label %15

14:                                               ; preds = %2
  call void @llvm.memcpy.p0.p0.i64(ptr align 8 %3, ptr align 8 %5, i64 8, i1 false), !tbaa.struct !191
  br label %15

15:                                               ; preds = %14, %13
  %16 = getelementptr inbounds nuw %struct.OSSL_TIME, ptr %3, i32 0, i32 0
  %17 = load i64, ptr %16, align 8
  ret i64 %17
}

; Function Attrs: nounwind uwtable
define void @ossl_quic_port_raise_net_error(ptr noundef %0, ptr noundef %1) #0 {
  %3 = alloca ptr, align 8
  %4 = alloca ptr, align 8
  %5 = alloca ptr, align 8
  %6 = alloca i32, align 4
  store ptr %0, ptr %3, align 8, !tbaa !8
  store ptr %1, ptr %4, align 8, !tbaa !67
  call void @llvm.lifetime.start.p0(i64 8, ptr %5) #8
  %7 = load ptr, ptr %3, align 8, !tbaa !8
  %8 = call i32 @ossl_quic_port_is_running(ptr noundef %7)
  %9 = icmp ne i32 %8, 0
  br i1 %9, label %11, label %10

10:                                               ; preds = %2
  store i32 1, ptr %6, align 4
  br label %38

11:                                               ; preds = %2
  call void @ERR_new()
  call void @ERR_set_debug(ptr noundef @.str, i32 noundef 1596, ptr noundef @__func__.ossl_quic_port_raise_net_error)
  call void (i32, i32, ptr, ...) @ERR_set_error(i32 noundef 20, i32 noundef 387, ptr noundef @.str.1)
  %12 = load ptr, ptr %3, align 8, !tbaa !8
  %13 = getelementptr inbounds nuw %struct.quic_port_st, ptr %12, i32 0, i32 13
  %14 = load ptr, ptr %13, align 8, !tbaa !42
  call void @OSSL_ERR_STATE_save(ptr noundef %14)
  %15 = load ptr, ptr %3, align 8, !tbaa !8
  call void @port_transition_failed(ptr noundef %15)
  %16 = load ptr, ptr %4, align 8, !tbaa !67
  %17 = icmp ne ptr %16, null
  br i1 %17, label %18, label %20

18:                                               ; preds = %11
  %19 = load ptr, ptr %4, align 8, !tbaa !67
  call void @ossl_quic_channel_raise_net_error(ptr noundef %19)
  br label %20

20:                                               ; preds = %18, %11
  %21 = load ptr, ptr %3, align 8, !tbaa !8
  %22 = getelementptr inbounds nuw %struct.quic_port_st, ptr %21, i32 0, i32 8
  %23 = call ptr @ossl_list_ch_head(ptr noundef %22)
  store ptr %23, ptr %5, align 8, !tbaa !67
  br label %24

24:                                               ; preds = %34, %20
  %25 = load ptr, ptr %5, align 8, !tbaa !67
  %26 = icmp ne ptr %25, null
  br i1 %26, label %27, label %37

27:                                               ; preds = %24
  %28 = load ptr, ptr %5, align 8, !tbaa !67
  %29 = load ptr, ptr %4, align 8, !tbaa !67
  %30 = icmp ne ptr %28, %29
  br i1 %30, label %31, label %33

31:                                               ; preds = %27
  %32 = load ptr, ptr %5, align 8, !tbaa !67
  call void @ossl_quic_channel_raise_net_error(ptr noundef %32)
  br label %33

33:                                               ; preds = %31, %27
  br label %34

34:                                               ; preds = %33
  %35 = load ptr, ptr %5, align 8, !tbaa !67
  %36 = call ptr @ossl_list_ch_next(ptr noundef %35)
  store ptr %36, ptr %5, align 8, !tbaa !67
  br label %24, !llvm.loop !193

37:                                               ; preds = %24
  store i32 0, ptr %6, align 4
  br label %38

38:                                               ; preds = %37, %10
  call void @llvm.lifetime.end.p0(i64 8, ptr %5) #8
  %39 = load i32, ptr %6, align 4
  switch i32 %39, label %41 [
    i32 0, label %40
    i32 1, label %40
  ]

40:                                               ; preds = %38, %38
  ret void

41:                                               ; preds = %38
  unreachable
}

; Function Attrs: inlinehint nounwind uwtable
define internal i64 @ossl_ticks2time(i64 noundef %0) #3 {
  %2 = alloca %struct.OSSL_TIME, align 8
  %3 = alloca i64, align 8
  store i64 %0, ptr %3, align 8, !tbaa !36
  %4 = load i64, ptr %3, align 8, !tbaa !36
  %5 = getelementptr inbounds nuw %struct.OSSL_TIME, ptr %2, i32 0, i32 0
  store i64 %4, ptr %5, align 8, !tbaa !251
  %6 = getelementptr inbounds nuw %struct.OSSL_TIME, ptr %2, i32 0, i32 0
  %7 = load i64, ptr %6, align 8
  ret i64 %7
}

; Function Attrs: inlinehint nounwind uwtable
define internal ptr @ossl_list_ch_next(ptr noundef %0) #3 {
  %2 = alloca ptr, align 8
  store ptr %0, ptr %2, align 8, !tbaa !67
  %3 = load ptr, ptr %2, align 8, !tbaa !67
  %4 = getelementptr inbounds nuw %struct.quic_channel_st, ptr %3, i32 0, i32 1
  %5 = getelementptr inbounds nuw %struct.anon.0, ptr %4, i32 0, i32 0
  %6 = load ptr, ptr %5, align 8, !tbaa !102
  ret ptr %6
}

; Function Attrs: inlinehint nounwind uwtable
define internal void @ossl_quic_tick_result_merge_into(ptr noundef %0, ptr noundef %1) #3 {
  %3 = alloca ptr, align 8
  %4 = alloca ptr, align 8
  %5 = alloca %struct.OSSL_TIME, align 8
  store ptr %0, ptr %3, align 8, !tbaa !185
  store ptr %1, ptr %4, align 8, !tbaa !185
  %6 = load ptr, ptr %3, align 8, !tbaa !185
  %7 = getelementptr inbounds nuw %struct.quic_tick_result_st, ptr %6, i32 0, i32 1
  %8 = load i8, ptr %7, align 8, !tbaa !187
  %9 = sext i8 %8 to i32
  %10 = icmp ne i32 %9, 0
  br i1 %10, label %17, label %11

11:                                               ; preds = %2
  %12 = load ptr, ptr %4, align 8, !tbaa !185
  %13 = getelementptr inbounds nuw %struct.quic_tick_result_st, ptr %12, i32 0, i32 1
  %14 = load i8, ptr %13, align 8, !tbaa !187
  %15 = sext i8 %14 to i32
  %16 = icmp ne i32 %15, 0
  br label %17

17:                                               ; preds = %11, %2
  %18 = phi i1 [ true, %2 ], [ %16, %11 ]
  %19 = zext i1 %18 to i32
  %20 = trunc i32 %19 to i8
  %21 = load ptr, ptr %3, align 8, !tbaa !185
  %22 = getelementptr inbounds nuw %struct.quic_tick_result_st, ptr %21, i32 0, i32 1
  store i8 %20, ptr %22, align 8, !tbaa !187
  %23 = load ptr, ptr %3, align 8, !tbaa !185
  %24 = getelementptr inbounds nuw %struct.quic_tick_result_st, ptr %23, i32 0, i32 2
  %25 = load i8, ptr %24, align 1, !tbaa !189
  %26 = sext i8 %25 to i32
  %27 = icmp ne i32 %26, 0
  br i1 %27, label %34, label %28

28:                                               ; preds = %17
  %29 = load ptr, ptr %4, align 8, !tbaa !185
  %30 = getelementptr inbounds nuw %struct.quic_tick_result_st, ptr %29, i32 0, i32 2
  %31 = load i8, ptr %30, align 1, !tbaa !189
  %32 = sext i8 %31 to i32
  %33 = icmp ne i32 %32, 0
  br label %34

34:                                               ; preds = %28, %17
  %35 = phi i1 [ true, %17 ], [ %33, %28 ]
  %36 = zext i1 %35 to i32
  %37 = trunc i32 %36 to i8
  %38 = load ptr, ptr %3, align 8, !tbaa !185
  %39 = getelementptr inbounds nuw %struct.quic_tick_result_st, ptr %38, i32 0, i32 2
  store i8 %37, ptr %39, align 1, !tbaa !189
  %40 = load ptr, ptr %3, align 8, !tbaa !185
  %41 = getelementptr inbounds nuw %struct.quic_tick_result_st, ptr %40, i32 0, i32 3
  %42 = load i8, ptr %41, align 2, !tbaa !190
  %43 = sext i8 %42 to i32
  %44 = icmp ne i32 %43, 0
  br i1 %44, label %51, label %45

45:                                               ; preds = %34
  %46 = load ptr, ptr %4, align 8, !tbaa !185
  %47 = getelementptr inbounds nuw %struct.quic_tick_result_st, ptr %46, i32 0, i32 3
  %48 = load i8, ptr %47, align 2, !tbaa !190
  %49 = sext i8 %48 to i32
  %50 = icmp ne i32 %49, 0
  br label %51

51:                                               ; preds = %45, %34
  %52 = phi i1 [ true, %34 ], [ %50, %45 ]
  %53 = zext i1 %52 to i32
  %54 = trunc i32 %53 to i8
  %55 = load ptr, ptr %3, align 8, !tbaa !185
  %56 = getelementptr inbounds nuw %struct.quic_tick_result_st, ptr %55, i32 0, i32 3
  store i8 %54, ptr %56, align 2, !tbaa !190
  %57 = load ptr, ptr %3, align 8, !tbaa !185
  %58 = getelementptr inbounds nuw %struct.quic_tick_result_st, ptr %57, i32 0, i32 0
  call void @llvm.lifetime.start.p0(i64 8, ptr %5) #8
  %59 = load ptr, ptr %3, align 8, !tbaa !185
  %60 = getelementptr inbounds nuw %struct.quic_tick_result_st, ptr %59, i32 0, i32 0
  %61 = load ptr, ptr %4, align 8, !tbaa !185
  %62 = getelementptr inbounds nuw %struct.quic_tick_result_st, ptr %61, i32 0, i32 0
  %63 = getelementptr inbounds nuw %struct.OSSL_TIME, ptr %60, i32 0, i32 0
  %64 = load i64, ptr %63, align 8
  %65 = getelementptr inbounds nuw %struct.OSSL_TIME, ptr %62, i32 0, i32 0
  %66 = load i64, ptr %65, align 8
  %67 = call i64 @ossl_time_min(i64 %64, i64 %66)
  %68 = getelementptr inbounds nuw %struct.OSSL_TIME, ptr %5, i32 0, i32 0
  store i64 %67, ptr %68, align 8
  call void @llvm.memcpy.p0.p0.i64(ptr align 8 %58, ptr align 8 %5, i64 8, i1 false), !tbaa.struct !191
  call void @llvm.lifetime.end.p0(i64 8, ptr %5) #8
  ret void
}

; Function Attrs: inlinehint nounwind uwtable
define internal ptr @ossl_list_ch_head(ptr noundef %0) #3 {
  %2 = alloca ptr, align 8
  store ptr %0, ptr %2, align 8, !tbaa !99
  %3 = load ptr, ptr %2, align 8, !tbaa !99
  %4 = getelementptr inbounds nuw %struct.ossl_list_st_ch, ptr %3, i32 0, i32 0
  %5 = load ptr, ptr %4, align 8, !tbaa !101
  ret ptr %5
}

; Function Attrs: nounwind uwtable
define internal void @port_rx_pre(ptr noundef %0) #0 {
  %2 = alloca ptr, align 8
  %3 = alloca i32, align 4
  %4 = alloca i32, align 4
  store ptr %0, ptr %2, align 8, !tbaa !8
  call void @llvm.lifetime.start.p0(i64 4, ptr %3) #8
  %5 = load ptr, ptr %2, align 8, !tbaa !8
  %6 = getelementptr inbounds nuw %struct.quic_port_st, ptr %5, i32 0, i32 16
  %7 = load i16, ptr %6, align 2
  %8 = lshr i16 %7, 4
  %9 = and i16 %8, 1
  %10 = zext i16 %9 to i32
  %11 = icmp ne i32 %10, 0
  br i1 %11, label %21, label %12

12:                                               ; preds = %1
  %13 = load ptr, ptr %2, align 8, !tbaa !8
  %14 = getelementptr inbounds nuw %struct.quic_port_st, ptr %13, i32 0, i32 16
  %15 = load i16, ptr %14, align 2
  %16 = lshr i16 %15, 3
  %17 = and i16 %16, 1
  %18 = zext i16 %17 to i32
  %19 = icmp ne i32 %18, 0
  br i1 %19, label %21, label %20

20:                                               ; preds = %12
  store i32 1, ptr %4, align 4
  br label %31

21:                                               ; preds = %12, %1
  %22 = load ptr, ptr %2, align 8, !tbaa !8
  %23 = getelementptr inbounds nuw %struct.quic_port_st, ptr %22, i32 0, i32 7
  %24 = load ptr, ptr %23, align 8, !tbaa !43
  %25 = call i32 @ossl_quic_demux_pump(ptr noundef %24)
  store i32 %25, ptr %3, align 4, !tbaa !41
  %26 = load i32, ptr %3, align 4, !tbaa !41
  %27 = icmp eq i32 %26, -2
  br i1 %27, label %28, label %30

28:                                               ; preds = %21
  %29 = load ptr, ptr %2, align 8, !tbaa !8
  call void @ossl_quic_port_raise_net_error(ptr noundef %29, ptr noundef null)
  br label %30

30:                                               ; preds = %28, %21
  store i32 0, ptr %4, align 4
  br label %31

31:                                               ; preds = %30, %20
  call void @llvm.lifetime.end.p0(i64 4, ptr %3) #8
  %32 = load i32, ptr %4, align 4
  switch i32 %32, label %34 [
    i32 0, label %33
    i32 1, label %33
  ]

33:                                               ; preds = %31, %31
  ret void

34:                                               ; preds = %31
  unreachable
}

; Function Attrs: inlinehint nounwind uwtable
define internal i64 @ossl_time_infinite() #3 {
  %1 = alloca %struct.OSSL_TIME, align 8
  %2 = call i64 @ossl_ticks2time(i64 noundef -1)
  %3 = getelementptr inbounds nuw %struct.OSSL_TIME, ptr %1, i32 0, i32 0
  store i64 %2, ptr %3, align 8
  %4 = getelementptr inbounds nuw %struct.OSSL_TIME, ptr %1, i32 0, i32 0
  %5 = load i64, ptr %4, align 8
  ret i64 %5
}

; Function Attrs: nounwind uwtable
define i32 @ossl_quic_port_is_running(ptr noundef %0) #0 {
  %2 = alloca ptr, align 8
  store ptr %0, ptr %2, align 8, !tbaa !8
  %3 = load ptr, ptr %2, align 8, !tbaa !8
  %4 = getelementptr inbounds nuw %struct.quic_port_st, ptr %3, i32 0, i32 16
  %5 = load i16, ptr %4, align 2
  %6 = and i16 %5, 1
  %7 = zext i16 %6 to i32
  %8 = icmp eq i32 %7, 0
  %9 = zext i1 %8 to i32
  ret i32 %9
}

; Function Attrs: nounwind uwtable
define void @ossl_quic_port_subtick(ptr noundef %0, ptr noundef %1, i32 noundef %2) #0 {
  %4 = alloca ptr, align 8
  %5 = alloca ptr, align 8
  %6 = alloca i32, align 4
  %7 = alloca ptr, align 8
  %8 = alloca %struct.OSSL_TIME, align 8
  %9 = alloca %struct.quic_tick_result_st, align 8
  store ptr %0, ptr %4, align 8, !tbaa !8
  store ptr %1, ptr %5, align 8, !tbaa !185
  store i32 %2, ptr %6, align 4, !tbaa !41
  call void @llvm.lifetime.start.p0(i64 8, ptr %7) #8
  %10 = load ptr, ptr %4, align 8, !tbaa !8
  %11 = call i32 @ossl_quic_port_is_running(ptr noundef %10)
  %12 = trunc i32 %11 to i8
  %13 = load ptr, ptr %5, align 8, !tbaa !185
  %14 = getelementptr inbounds nuw %struct.quic_tick_result_st, ptr %13, i32 0, i32 1
  store i8 %12, ptr %14, align 8, !tbaa !187
  %15 = load ptr, ptr %5, align 8, !tbaa !185
  %16 = getelementptr inbounds nuw %struct.quic_tick_result_st, ptr %15, i32 0, i32 2
  store i8 0, ptr %16, align 1, !tbaa !189
  %17 = load ptr, ptr %5, align 8, !tbaa !185
  %18 = getelementptr inbounds nuw %struct.quic_tick_result_st, ptr %17, i32 0, i32 3
  store i8 0, ptr %18, align 2, !tbaa !190
  %19 = load ptr, ptr %5, align 8, !tbaa !185
  %20 = getelementptr inbounds nuw %struct.quic_tick_result_st, ptr %19, i32 0, i32 0
  call void @llvm.lifetime.start.p0(i64 8, ptr %8) #8
  %21 = call i64 @ossl_time_infinite()
  %22 = getelementptr inbounds nuw %struct.OSSL_TIME, ptr %8, i32 0, i32 0
  store i64 %21, ptr %22, align 8
  call void @llvm.memcpy.p0.p0.i64(ptr align 8 %20, ptr align 8 %8, i64 8, i1 false), !tbaa.struct !191
  call void @llvm.lifetime.end.p0(i64 8, ptr %8) #8
  %23 = load ptr, ptr %4, align 8, !tbaa !8
  %24 = getelementptr inbounds nuw %struct.quic_port_st, ptr %23, i32 0, i32 0
  %25 = load ptr, ptr %24, align 8, !tbaa !15
  %26 = getelementptr inbounds nuw %struct.quic_engine_st, ptr %25, i32 0, i32 7
  %27 = load i8, ptr %26, align 8
  %28 = and i8 %27, 1
  %29 = zext i8 %28 to i32
  %30 = icmp ne i32 %29, 0
  br i1 %30, label %52, label %31

31:                                               ; preds = %3
  %32 = load ptr, ptr %4, align 8, !tbaa !8
  %33 = call i32 @ossl_quic_port_is_running(ptr noundef %32)
  %34 = icmp ne i32 %33, 0
  br i1 %34, label %35, label %37

35:                                               ; preds = %31
  %36 = load ptr, ptr %4, align 8, !tbaa !8
  call void @port_rx_pre(ptr noundef %36)
  br label %37

37:                                               ; preds = %35, %31
  %38 = load ptr, ptr %4, align 8, !tbaa !8
  %39 = getelementptr inbounds nuw %struct.quic_port_st, ptr %38, i32 0, i32 8
  %40 = call ptr @ossl_list_ch_head(ptr noundef %39)
  store ptr %40, ptr %7, align 8, !tbaa !67
  br label %41

41:                                               ; preds = %48, %37
  %42 = load ptr, ptr %7, align 8, !tbaa !67
  %43 = icmp ne ptr %42, null
  br i1 %43, label %44, label %51

44:                                               ; preds = %41
  call void @llvm.lifetime.start.p0(i64 16, ptr %9) #8
  call void @llvm.memset.p0.i64(ptr align 8 %9, i8 0, i64 16, i1 false)
  %45 = load ptr, ptr %7, align 8, !tbaa !67
  %46 = load i32, ptr %6, align 4, !tbaa !41
  call void @ossl_quic_channel_subtick(ptr noundef %45, ptr noundef %9, i32 noundef %46)
  %47 = load ptr, ptr %5, align 8, !tbaa !185
  call void @ossl_quic_tick_result_merge_into(ptr noundef %47, ptr noundef %9)
  call void @llvm.lifetime.end.p0(i64 16, ptr %9) #8
  br label %48

48:                                               ; preds = %44
  %49 = load ptr, ptr %7, align 8, !tbaa !67
  %50 = call ptr @ossl_list_ch_next(ptr noundef %49)
  store ptr %50, ptr %7, align 8, !tbaa !67
  br label %41, !llvm.loop !192

51:                                               ; preds = %41
  br label %52

52:                                               ; preds = %51, %3
  call void @llvm.lifetime.end.p0(i64 8, ptr %7) #8
  ret void
}